; Function Attrs: mustprogress nounwind uwtable
define void @_ZN22colvarbias_reweightaMDD0Ev(ptr noundef nonnull align 8 dereferenceable(552) %0) unnamed_addr #1 align 2 {
  tail call void @_ZN22colvarbias_reweightaMDD2Ev(ptr noundef nonnull align 8 dereferenceable(552) %0, ptr noundef nonnull @_ZTT22colvarbias_reweightaMD) #17
  %2 = getelementptr inbounds i8, ptr %0, i64 872
  tail call void @_ZN10colvardepsD2Ev(ptr noundef nonnull align 8 dereferenceable(120) %2) #17
  %3 = getelementptr inbounds i8, ptr %0, i64 552
  tail call void @_ZN11colvarparseD2Ev(ptr noundef nonnull align 8 dereferenceable(320) %3) #17
  tail call void @_ZdlPv(ptr noundef nonnull %0) #18
  ret void
}